target datalayout = "e-m:e-p270:32:32-p271:32:32-p272:64:64-i64:64-i128:128-f80:128-n8:16:32:64-S128"
target triple = "x86_64-unknown-linux-gnu"

%"class.absl::lts_20230802::Mutex" = type { %"struct.std::atomic" }
%"struct.std::atomic" = type { %"struct.std::__atomic_base" }
%"struct.std::__atomic_base" = type { i64 }
%"class.absl::lts_20230802::MutexLock" = type { ptr }
%"class.std::__cxx11::basic_string" = type { %"struct.std::__cxx11::basic_string<char>::_Alloc_hider", i64, %union.anon.37 }
%"struct.std::__cxx11::basic_string<char>::_Alloc_hider" = type { ptr }
%union.anon.37 = type { i64, [8 x i8] }
%"class.std::unique_ptr.31" = type { %"struct.std::__uniq_ptr_data.32" }
%"struct.std::__uniq_ptr_data.32" = type { %"class.std::__uniq_ptr_impl.33" }
%"class.std::__uniq_ptr_impl.33" = type { %"class.std::tuple.34" }
%"class.std::tuple.34" = type { %"struct.std::_Tuple_impl.35" }
%"struct.std::_Tuple_impl.35" = type { %"struct.std::_Head_base.36" }
%"struct.std::_Head_base.36" = type { ptr }
%"class.grpc_core::DualRefCounted" = type { %"class.grpc_core::Orphanable", %"struct.std::atomic.21" }
%"class.grpc_core::Orphanable" = type { ptr }
%"struct.std::atomic.21" = type { %"struct.std::__atomic_base.22" }
%"struct.std::__atomic_base.22" = type { i64 }
%"class.std::unique_ptr.23" = type { %"struct.std::__uniq_ptr_data.24" }
%"struct.std::__uniq_ptr_data.24" = type { %"class.std::__uniq_ptr_impl.25" }
%"class.std::__uniq_ptr_impl.25" = type { %"class.std::tuple.26" }
%"class.std::tuple.26" = type { %"struct.std::_Tuple_impl.27" }
%"struct.std::_Tuple_impl.27" = type { %"struct.std::_Head_base.30" }
%"struct.std::_Head_base.30" = type { ptr }
%"class.std::shared_ptr" = type { %"class.std::__shared_ptr" }
%"class.std::__shared_ptr" = type { ptr, %"class.std::__shared_count" }
%"class.std::__shared_count" = type { ptr }
%"class.grpc_core::Duration" = type { i64 }
%"class.grpc_core::GrpcXdsClient" = type { %"class.grpc_core::XdsClient.base", %"class.std::unique_ptr.84" }
%"class.grpc_core::XdsClient.base" = type <{ %"class.grpc_core::DualRefCounted", %"class.std::unique_ptr.23", %"class.std::unique_ptr.31", %"class.grpc_core::Duration", i8, [7 x i8], %"class.grpc_core::XdsApi", %"class.grpc_core::WorkSerializer", %"class.std::shared_ptr", %"class.absl::lts_20230802::Mutex", %"class.std::map", %"class.upb::DefPool", %"class.std::map.55", %"class.std::map.63", %"class.std::map.71", %"class.std::map.76", i8 }>
%"class.grpc_core::XdsApi" = type { ptr, ptr, ptr, ptr, %"class.std::__cxx11::basic_string", %"class.std::__cxx11::basic_string" }
%"class.grpc_core::WorkSerializer" = type { %"class.std::unique_ptr.38" }
%"class.std::unique_ptr.38" = type { %"struct.std::__uniq_ptr_data.39" }
%"struct.std::__uniq_ptr_data.39" = type { %"class.std::__uniq_ptr_impl.40" }
%"class.std::__uniq_ptr_impl.40" = type { %"class.std::tuple.41" }
%"class.std::tuple.41" = type { %"struct.std::_Tuple_impl.42" }
%"struct.std::_Tuple_impl.42" = type { %"struct.std::_Head_base.43" }
%"struct.std::_Head_base.43" = type { ptr }
%"class.std::map" = type { %"class.std::_Rb_tree" }
%"class.std::_Rb_tree" = type { %"struct.std::_Rb_tree<std::basic_string_view<char>, std::pair<const std::basic_string_view<char>, const grpc_core::XdsResourceType *>, std::_Select1st<std::pair<const std::basic_string_view<char>, const grpc_core::XdsResourceType *>>, std::less<std::basic_string_view<char>>>::_Rb_tree_impl" }
%"struct.std::_Rb_tree<std::basic_string_view<char>, std::pair<const std::basic_string_view<char>, const grpc_core::XdsResourceType *>, std::_Select1st<std::pair<const std::basic_string_view<char>, const grpc_core::XdsResourceType *>>, std::less<std::basic_string_view<char>>>::_Rb_tree_impl" = type { %"struct.std::_Rb_tree_key_compare", %"struct.std::_Rb_tree_header" }
%"struct.std::_Rb_tree_key_compare" = type { %"struct.std::less" }
%"struct.std::less" = type { i8 }
%"struct.std::_Rb_tree_header" = type { %"struct.std::_Rb_tree_node_base", i64 }
%"struct.std::_Rb_tree_node_base" = type { i32, ptr, ptr, ptr }
%"class.upb::DefPool" = type { %"class.std::unique_ptr.47" }
%"class.std::unique_ptr.47" = type { %"struct.std::__uniq_ptr_data.48" }
%"struct.std::__uniq_ptr_data.48" = type { %"class.std::__uniq_ptr_impl.49" }
%"class.std::__uniq_ptr_impl.49" = type { %"class.std::tuple.50" }
%"class.std::tuple.50" = type { %"struct.std::_Tuple_impl.51" }
%"struct.std::_Tuple_impl.51" = type { %"struct.std::_Tuple_impl.52", %"struct.std::_Head_base.54" }
%"struct.std::_Tuple_impl.52" = type { %"struct.std::_Head_base.53" }
%"struct.std::_Head_base.53" = type { ptr }
%"struct.std::_Head_base.54" = type { ptr }
%"class.std::map.55" = type { %"class.std::_Rb_tree.56" }
%"class.std::_Rb_tree.56" = type { %"struct.std::_Rb_tree<const grpc_core::XdsBootstrap::XdsServer *, std::pair<const grpc_core::XdsBootstrap::XdsServer *const, grpc_core::XdsClient::ChannelState *>, std::_Select1st<std::pair<const grpc_core::XdsBootstrap::XdsServer *const, grpc_core::XdsClient::ChannelState *>>, std::less<const grpc_core::XdsBootstrap::XdsServer *>>::_Rb_tree_impl" }
%"struct.std::_Rb_tree<const grpc_core::XdsBootstrap::XdsServer *, std::pair<const grpc_core::XdsBootstrap::XdsServer *const, grpc_core::XdsClient::ChannelState *>, std::_Select1st<std::pair<const grpc_core::XdsBootstrap::XdsServer *const, grpc_core::XdsClient::ChannelState *>>, std::less<const grpc_core::XdsBootstrap::XdsServer *>>::_Rb_tree_impl" = type { %"struct.std::_Rb_tree_key_compare.60", %"struct.std::_Rb_tree_header" }
%"struct.std::_Rb_tree_key_compare.60" = type { %"struct.std::less.61" }
%"struct.std::less.61" = type { i8 }
%"class.std::map.63" = type { %"class.std::_Rb_tree.64" }
%"class.std::_Rb_tree.64" = type { %"struct.std::_Rb_tree<std::__cxx11::basic_string<char>, std::pair<const std::__cxx11::basic_string<char>, grpc_core::XdsClient::AuthorityState>, std::_Select1st<std::pair<const std::__cxx11::basic_string<char>, grpc_core::XdsClient::AuthorityState>>, std::less<std::__cxx11::basic_string<char>>>::_Rb_tree_impl" }
%"struct.std::_Rb_tree<std::__cxx11::basic_string<char>, std::pair<const std::__cxx11::basic_string<char>, grpc_core::XdsClient::AuthorityState>, std::_Select1st<std::pair<const std::__cxx11::basic_string<char>, grpc_core::XdsClient::AuthorityState>>, std::less<std::__cxx11::basic_string<char>>>::_Rb_tree_impl" = type { %"struct.std::_Rb_tree_key_compare.68", %"struct.std::_Rb_tree_header" }
%"struct.std::_Rb_tree_key_compare.68" = type { %"struct.std::less.69" }
%"struct.std::less.69" = type { i8 }
%"class.std::map.71" = type { %"class.std::_Rb_tree.72" }
%"class.std::_Rb_tree.72" = type { %"struct.std::_Rb_tree<const grpc_core::XdsBootstrap::XdsServer *, std::pair<const grpc_core::XdsBootstrap::XdsServer *const, grpc_core::XdsClient::LoadReportServer>, std::_Select1st<std::pair<const grpc_core::XdsBootstrap::XdsServer *const, grpc_core::XdsClient::LoadReportServer>>, std::less<const grpc_core::XdsBootstrap::XdsServer *>>::_Rb_tree_impl" }
%"struct.std::_Rb_tree<const grpc_core::XdsBootstrap::XdsServer *, std::pair<const grpc_core::XdsBootstrap::XdsServer *const, grpc_core::XdsClient::LoadReportServer>, std::_Select1st<std::pair<const grpc_core::XdsBootstrap::XdsServer *const, grpc_core::XdsClient::LoadReportServer>>, std::less<const grpc_core::XdsBootstrap::XdsServer *>>::_Rb_tree_impl" = type { %"struct.std::_Rb_tree_key_compare.60", %"struct.std::_Rb_tree_header" }
%"class.std::map.76" = type { %"class.std::_Rb_tree.77" }
%"class.std::_Rb_tree.77" = type { %"struct.std::_Rb_tree<grpc_core::XdsClient::ResourceWatcherInterface *, std::pair<grpc_core::XdsClient::ResourceWatcherInterface *const, grpc_core::RefCountedPtr<grpc_core::XdsClient::ResourceWatcherInterface>>, std::_Select1st<std::pair<grpc_core::XdsClient::ResourceWatcherInterface *const, grpc_core::RefCountedPtr<grpc_core::XdsClient::ResourceWatcherInterface>>>, std::less<grpc_core::XdsClient::ResourceWatcherInterface *>>::_Rb_tree_impl" }
%"struct.std::_Rb_tree<grpc_core::XdsClient::ResourceWatcherInterface *, std::pair<grpc_core::XdsClient::ResourceWatcherInterface *const, grpc_core::RefCountedPtr<grpc_core::XdsClient::ResourceWatcherInterface>>, std::_Select1st<std::pair<grpc_core::XdsClient::ResourceWatcherInterface *const, grpc_core::RefCountedPtr<grpc_core::XdsClient::ResourceWatcherInterface>>>, std::less<grpc_core::XdsClient::ResourceWatcherInterface *>>::_Rb_tree_impl" = type { %"struct.std::_Rb_tree_key_compare.81", %"struct.std::_Rb_tree_header" }
%"struct.std::_Rb_tree_key_compare.81" = type { %"struct.std::less.82" }
%"struct.std::less.82" = type { i8 }
%"class.std::unique_ptr.84" = type { %"struct.std::__uniq_ptr_data.85" }
%"struct.std::__uniq_ptr_data.85" = type { %"class.std::__uniq_ptr_impl.86" }
%"class.std::__uniq_ptr_impl.86" = type { %"class.std::tuple.87" }
%"class.std::tuple.87" = type { %"struct.std::_Tuple_impl.88" }
%"struct.std::_Tuple_impl.88" = type { %"struct.std::_Head_base.89" }
%"struct.std::_Head_base.89" = type { ptr }

@_ZN9grpc_core12_GLOBAL__N_14g_muE = internal global ptr null, align 8
@_ZN9grpc_core12_GLOBAL__N_112g_xds_clientE = internal global ptr null, align 8
@_ZTVN9grpc_core13GrpcXdsClientE = unnamed_addr constant { [5 x ptr] } { [5 x ptr] [ptr null, ptr @_ZTIN9grpc_core13GrpcXdsClientE, ptr @_ZN9grpc_core9XdsClient6OrphanEv, ptr @_ZN9grpc_core13GrpcXdsClientD1Ev, ptr @_ZN9grpc_core13GrpcXdsClientD0Ev] }, align 8

; Function Attrs: mustprogress nounwind uwtable
define linkonce_odr noundef nonnull align 1 dereferenceable(1) ptr @_ZNSt10_Head_baseILm1EN9grpc_core16OrphanableDeleteELb1EE7_M_headERS2_(ptr noundef nonnull align 1 dereferenceable(1) %__b) #5 comdat align 2 {
entry:
  %__b.addr = alloca ptr, align 8
  store ptr %__b, ptr %__b.addr, align 8
  %0 = load ptr, ptr %__b.addr, align 8
  ret ptr %0
}

; Function Attrs: mustprogress nounwind uwtable
define linkonce_odr noundef nonnull align 1 dereferenceable(1) ptr @_ZNSt11_Tuple_implILm1EJN9grpc_core16OrphanableDeleteEEE7_M_headERS2_(ptr noundef nonnull align 1 dereferenceable(1) %__t) #5 comdat align 2 {
entry:
  %__t.addr = alloca ptr, align 8
  store ptr %__t, ptr %__t.addr, align 8
  %0 = load ptr, ptr %__t.addr, align 8
  %call = call noundef nonnull align 1 dereferenceable(1) ptr @_ZNSt10_Head_baseILm1EN9grpc_core16OrphanableDeleteELb1EE7_M_headERS2_(ptr noundef nonnull align 1 dereferenceable(1) %0) #3
  ret ptr %call
}

; Function Attrs: mustprogress nounwind uwtable
define linkonce_odr noundef nonnull align 8 dereferenceable(8) ptr @_ZNSt10_Head_baseILm0EPN9grpc_core24CertificateProviderStoreELb0EE7_M_headERS3_(ptr noundef nonnull align 8 dereferenceable(8) %__b) #5 comdat align 2 {
entry:
  %__b.addr = alloca ptr, align 8
  store ptr %__b, ptr %__b.addr, align 8
  %0 = load ptr, ptr %__b.addr, align 8
  %_M_head_impl = getelementptr inbounds %"struct.std::_Head_base.89", ptr %0, i32 0, i32 0
  ret ptr %_M_head_impl
}

; Function Attrs: mustprogress nounwind uwtable
define linkonce_odr noundef nonnull align 1 dereferenceable(1) ptr @_ZSt12__get_helperILm1EN9grpc_core16OrphanableDeleteEJEERT0_RSt11_Tuple_implIXT_EJS2_DpT1_EE(ptr noundef nonnull align 1 dereferenceable(1) %__t) #5 comdat {
entry:
  %__t.addr = alloca ptr, align 8
  store ptr %__t, ptr %__t.addr, align 8
  %0 = load ptr, ptr %__t.addr, align 8
  %call = call noundef nonnull align 1 dereferenceable(1) ptr @_ZNSt11_Tuple_implILm1EJN9grpc_core16OrphanableDeleteEEE7_M_headERS2_(ptr noundef nonnull align 1 dereferenceable(1) %0) #3
  ret ptr %call
}

; Function Attrs: mustprogress nounwind uwtable
define linkonce_odr noundef nonnull align 8 dereferenceable(8) ptr @_ZNSt11_Tuple_implILm0EJPN9grpc_core24CertificateProviderStoreENS0_16OrphanableDeleteEEE7_M_headERS4_(ptr noundef nonnull align 8 dereferenceable(8) %__t) #5 comdat align 2 {
entry:
  %__t.addr = alloca ptr, align 8
  store ptr %__t, ptr %__t.addr, align 8
  %0 = load ptr, ptr %__t.addr, align 8
  %call = call noundef nonnull align 8 dereferenceable(8) ptr @_ZNSt10_Head_baseILm0EPN9grpc_core24CertificateProviderStoreELb0EE7_M_headERS3_(ptr noundef nonnull align 8 dereferenceable(8) %0) #3
  ret ptr %call
}

; Function Attrs: mustprogress nounwind uwtable
define linkonce_odr noundef nonnull align 1 dereferenceable(1) ptr @_ZSt3getILm1EJPN9grpc_core24CertificateProviderStoreENS0_16OrphanableDeleteEEERNSt13tuple_elementIXT_ESt5tupleIJDpT0_EEE4typeERS8_(ptr noundef nonnull align 8 dereferenceable(8) %__t) #5 comdat {
entry:
  %__t.addr = alloca ptr, align 8
  store ptr %__t, ptr %__t.addr, align 8
  %0 = load ptr, ptr %__t.addr, align 8
  %call = call noundef nonnull align 1 dereferenceable(1) ptr @_ZSt12__get_helperILm1EN9grpc_core16OrphanableDeleteEJEERT0_RSt11_Tuple_implIXT_EJS2_DpT1_EE(ptr noundef nonnull align 1 dereferenceable(1) %0) #3
  ret ptr %call
}

; Function Attrs: mustprogress nounwind uwtable
define linkonce_odr noundef nonnull align 8 dereferenceable(8) ptr @_ZSt12__get_helperILm0EPN9grpc_core24CertificateProviderStoreEJNS0_16OrphanableDeleteEEERT0_RSt11_Tuple_implIXT_EJS4_DpT1_EE(ptr noundef nonnull align 8 dereferenceable(8) %__t) #5 comdat {
entry:
  %__t.addr = alloca ptr, align 8
  store ptr %__t, ptr %__t.addr, align 8
  %0 = load ptr, ptr %__t.addr, align 8
  %call = call noundef nonnull align 8 dereferenceable(8) ptr @_ZNSt11_Tuple_implILm0EJPN9grpc_core24CertificateProviderStoreENS0_16OrphanableDeleteEEE7_M_headERS4_(ptr noundef nonnull align 8 dereferenceable(8) %0) #3
  ret ptr %call
}

; Function Attrs: mustprogress nounwind uwtable
define linkonce_odr noundef nonnull align 1 dereferenceable(1) ptr @_ZNSt15__uniq_ptr_implIN9grpc_core24CertificateProviderStoreENS0_16OrphanableDeleteEE10_M_deleterEv(ptr noundef nonnull align 8 dereferenceable(8) %this) #5 comdat align 2 {
entry:
  %this.addr = alloca ptr, align 8
  store ptr %this, ptr %this.addr, align 8
  %this1 = load ptr, ptr %this.addr, align 8
  %_M_t = getelementptr inbounds %"class.std::__uniq_ptr_impl.86", ptr %this1, i32 0, i32 0
  %call = call noundef nonnull align 1 dereferenceable(1) ptr @_ZSt3getILm1EJPN9grpc_core24CertificateProviderStoreENS0_16OrphanableDeleteEEERNSt13tuple_elementIXT_ESt5tupleIJDpT0_EEE4typeERS8_(ptr noundef nonnull align 8 dereferenceable(8) %_M_t) #3
  ret ptr %call
}

; Function Attrs: mustprogress nounwind uwtable
define linkonce_odr noundef nonnull align 8 dereferenceable(8) ptr @_ZSt3getILm0EJPN9grpc_core24CertificateProviderStoreENS0_16OrphanableDeleteEEERNSt13tuple_elementIXT_ESt5tupleIJDpT0_EEE4typeERS8_(ptr noundef nonnull align 8 dereferenceable(8) %__t) #5 comdat {
entry:
  %__t.addr = alloca ptr, align 8
  store ptr %__t, ptr %__t.addr, align 8
  %0 = load ptr, ptr %__t.addr, align 8
  %call = call noundef nonnull align 8 dereferenceable(8) ptr @_ZSt12__get_helperILm0EPN9grpc_core24CertificateProviderStoreEJNS0_16OrphanableDeleteEEERT0_RSt11_Tuple_implIXT_EJS4_DpT1_EE(ptr noundef nonnull align 8 dereferenceable(8) %0) #3
  ret ptr %call
}

; Function Attrs: mustprogress uwtable
define linkonce_odr void @_ZN9grpc_core16OrphanableDeleteclINS_24CertificateProviderStoreEEEvPT_(ptr noundef nonnull align 1 dereferenceable(1) %this, ptr noundef %p) #7 comdat align 2 {
entry:
  %this.addr = alloca ptr, align 8
  %p.addr = alloca ptr, align 8
  store ptr %this, ptr %this.addr, align 8
  store ptr %p, ptr %p.addr, align 8
  %0 = load ptr, ptr %p.addr, align 8
  %vtable = load ptr, ptr %0, align 8
  %vfn = getelementptr inbounds ptr, ptr %vtable, i64 0
  %1 = load ptr, ptr %vfn, align 8
  call void %1(ptr noundef nonnull align 8 dereferenceable(120) %0)
  ret void
}

; Function Attrs: mustprogress nounwind uwtable
define linkonce_odr noundef nonnull align 1 dereferenceable(1) ptr @_ZNSt10unique_ptrIN9grpc_core24CertificateProviderStoreENS0_16OrphanableDeleteEE11get_deleterEv(ptr noundef nonnull align 8 dereferenceable(8) %this) #5 comdat align 2 {
entry:
  %this.addr = alloca ptr, align 8
  store ptr %this, ptr %this.addr, align 8
  %this1 = load ptr, ptr %this.addr, align 8
  %_M_t = getelementptr inbounds %"class.std::unique_ptr.84", ptr %this1, i32 0, i32 0
  %call = call noundef nonnull align 1 dereferenceable(1) ptr @_ZNSt15__uniq_ptr_implIN9grpc_core24CertificateProviderStoreENS0_16OrphanableDeleteEE10_M_deleterEv(ptr noundef nonnull align 8 dereferenceable(8) %_M_t) #3
  ret ptr %call
}

; Function Attrs: mustprogress nounwind uwtable
define linkonce_odr noundef nonnull align 8 dereferenceable(8) ptr @_ZNSt15__uniq_ptr_implIN9grpc_core24CertificateProviderStoreENS0_16OrphanableDeleteEE6_M_ptrEv(ptr noundef nonnull align 8 dereferenceable(8) %this) #5 comdat align 2 {
entry:
  %this.addr = alloca ptr, align 8
  store ptr %this, ptr %this.addr, align 8
  %this1 = load ptr, ptr %this.addr, align 8
  %_M_t = getelementptr inbounds %"class.std::__uniq_ptr_impl.86", ptr %this1, i32 0, i32 0
  %call = call noundef nonnull align 8 dereferenceable(8) ptr @_ZSt3getILm0EJPN9grpc_core24CertificateProviderStoreENS0_16OrphanableDeleteEEERNSt13tuple_elementIXT_ESt5tupleIJDpT0_EEE4typeERS8_(ptr noundef nonnull align 8 dereferenceable(8) %_M_t) #3
  ret ptr %call
}

; Function Attrs: mustprogress nounwind uwtable
define linkonce_odr void @_ZNSt10unique_ptrIN9grpc_core24CertificateProviderStoreENS0_16OrphanableDeleteEED2Ev(ptr noundef nonnull align 8 dereferenceable(8) %this) unnamed_addr #5 comdat align 2 personality ptr @__gxx_personality_v0 {
entry:
  %this.addr = alloca ptr, align 8
  %__ptr = alloca ptr, align 8
  store ptr %this, ptr %this.addr, align 8
  %this1 = load ptr, ptr %this.addr, align 8
  %_M_t = getelementptr inbounds %"class.std::unique_ptr.84", ptr %this1, i32 0, i32 0
  %call = call noundef nonnull align 8 dereferenceable(8) ptr @_ZNSt15__uniq_ptr_implIN9grpc_core24CertificateProviderStoreENS0_16OrphanableDeleteEE6_M_ptrEv(ptr noundef nonnull align 8 dereferenceable(8) %_M_t) #3
  store ptr %call, ptr %__ptr, align 8
  %0 = load ptr, ptr %__ptr, align 8
  %1 = load ptr, ptr %0, align 8
  %cmp = icmp ne ptr %1, null
  br i1 %cmp, label %if.then, label %if.end

if.then:                                          ; preds = %entry
  %call2 = call noundef nonnull align 1 dereferenceable(1) ptr @_ZNSt10unique_ptrIN9grpc_core24CertificateProviderStoreENS0_16OrphanableDeleteEE11get_deleterEv(ptr noundef nonnull align 8 dereferenceable(8) %this1) #3
  %2 = load ptr, ptr %__ptr, align 8
  %3 = load ptr, ptr %2, align 8
  invoke void @_ZN9grpc_core16OrphanableDeleteclINS_24CertificateProviderStoreEEEvPT_(ptr noundef nonnull align 1 dereferenceable(1) %call2, ptr noundef %3)
          to label %invoke.cont unwind label %terminate.lpad

invoke.cont:                                      ; preds = %if.then
  br label %if.end

if.end:                                           ; preds = %invoke.cont, %entry
  %4 = load ptr, ptr %__ptr, align 8
  store ptr null, ptr %4, align 8
  ret void

terminate.lpad:                                   ; preds = %if.then
  %5 = landingpad { ptr, i32 }
          catch ptr null
  %6 = extractvalue { ptr, i32 } %5, 0
  call void @__clang_call_terminate(ptr %6) #18
  unreachable
}

; Function Attrs: mustprogress nounwind uwtable
define linkonce_odr void @_ZN4absl12lts_202308029MutexLockD2Ev(ptr noundef nonnull align 8 dereferenceable(8) %this) unnamed_addr #5 comdat align 2 personality ptr @__gxx_personality_v0 {
entry:
  %this.addr = alloca ptr, align 8
  store ptr %this, ptr %this.addr, align 8
  %this1 = load ptr, ptr %this.addr, align 8
  %mu_ = getelementptr inbounds %"class.absl::lts_20230802::MutexLock", ptr %this1, i32 0, i32 0
  %0 = load ptr, ptr %mu_, align 8
  invoke void @_ZN4absl12lts_202308025Mutex6UnlockEv(ptr noundef nonnull align 8 dereferenceable(8) %0)
          to label %invoke.cont unwind label %terminate.lpad

invoke.cont:                                      ; preds = %entry
  ret void

terminate.lpad:                                   ; preds = %entry
  %1 = landingpad { ptr, i32 }
          catch ptr null
  %2 = extractvalue { ptr, i32 } %1, 0
  call void @__clang_call_terminate(ptr %2) #18
  unreachable
}

; Function Attrs: mustprogress uwtable
define linkonce_odr void @_ZN4absl12lts_202308029MutexLockC2EPNS0_5MutexE(ptr noundef nonnull align 8 dereferenceable(8) %this, ptr noundef %mu) unnamed_addr #7 comdat align 2 {
entry:
  %this.addr = alloca ptr, align 8
  %mu.addr = alloca ptr, align 8
  store ptr %this, ptr %this.addr, align 8
  store ptr %mu, ptr %mu.addr, align 8
  %this1 = load ptr, ptr %this.addr, align 8
  %mu_ = getelementptr inbounds %"class.absl::lts_20230802::MutexLock", ptr %this1, i32 0, i32 0
  %0 = load ptr, ptr %mu.addr, align 8
  store ptr %0, ptr %mu_, align 8
  %mu_2 = getelementptr inbounds %"class.absl::lts_20230802::MutexLock", ptr %this1, i32 0, i32 0
  %1 = load ptr, ptr %mu_2, align 8
  call void @_ZN4absl12lts_202308025Mutex4LockEv(ptr noundef nonnull align 8 dereferenceable(8) %1)
  ret void
}

; Function Attrs: mustprogress nounwind uwtable
define void @_ZN9grpc_core13GrpcXdsClientD2Ev(ptr noundef nonnull align 8 dereferenceable(448) %this) unnamed_addr #5 align 2 personality ptr @__gxx_personality_v0 {
entry:
  %this.addr = alloca ptr, align 8
  %lock = alloca %"class.absl::lts_20230802::MutexLock", align 8
  store ptr %this, ptr %this.addr, align 8
  %this1 = load ptr, ptr %this.addr, align 8
  store ptr getelementptr inbounds ({ [5 x ptr] }, ptr @_ZTVN9grpc_core13GrpcXdsClientE, i32 0, i32 0, i32 2), ptr %this1, align 8
  %0 = load ptr, ptr @_ZN9grpc_core12_GLOBAL__N_14g_muE, align 8
  invoke void @_ZN4absl12lts_202308029MutexLockC2EPNS0_5MutexE(ptr noundef nonnull align 8 dereferenceable(8) %lock, ptr noundef %0)
          to label %invoke.cont unwind label %terminate.lpad

invoke.cont:                                      ; preds = %entry
  %1 = load ptr, ptr @_ZN9grpc_core12_GLOBAL__N_112g_xds_clientE, align 8
  %cmp = icmp eq ptr %1, %this1
  br i1 %cmp, label %if.then, label %if.end

if.then:                                          ; preds = %invoke.cont
  store ptr null, ptr @_ZN9grpc_core12_GLOBAL__N_112g_xds_clientE, align 8
  br label %if.end

if.end:                                           ; preds = %if.then, %invoke.cont
  call void @_ZN4absl12lts_202308029MutexLockD2Ev(ptr noundef nonnull align 8 dereferenceable(8) %lock) #3
  %certificate_provider_store_ = getelementptr inbounds %"class.grpc_core::GrpcXdsClient", ptr %this1, i32 0, i32 1
  call void @_ZNSt10unique_ptrIN9grpc_core24CertificateProviderStoreENS0_16OrphanableDeleteEED2Ev(ptr noundef nonnull align 8 dereferenceable(8) %certificate_provider_store_) #3
  call void @_ZN9grpc_core9XdsClientD2Ev(ptr noundef nonnull align 8 dereferenceable(433) %this1) #3
  ret void

terminate.lpad:                                   ; preds = %entry
  %2 = landingpad { ptr, i32 }
          catch ptr null
  %3 = extractvalue { ptr, i32 } %2, 0
  call void @__clang_call_terminate(ptr %3) #18
  unreachable
}