; Function Attrs: mustprogress nounwind uwtable
define void @_ZN9grpc_core13GrpcXdsClientD2Ev(ptr noundef nonnull align 8 dereferenceable(448) %this) unnamed_addr #6 align 2 personality ptr @__gxx_personality_v0 {
entry:
  store ptr getelementptr inbounds ({ [5 x ptr] }, ptr @_ZTVN9grpc_core13GrpcXdsClientE, i64 0, i32 0, i64 2), ptr %this, align 8
  %0 = load ptr, ptr @_ZN9grpc_core12_GLOBAL__N_14g_muE, align 8
  invoke void @_ZN4absl12lts_202308025Mutex4LockEv(ptr noundef nonnull align 8 dereferenceable(8) %0)
          to label %invoke.cont unwind label %terminate.lpad

invoke.cont:                                      ; preds = %entry
  %1 = load ptr, ptr @_ZN9grpc_core12_GLOBAL__N_112g_xds_clientE, align 8
  %cmp = icmp eq ptr %1, %this
  br i1 %cmp, label %if.then, label %if.end

if.then:                                          ; preds = %invoke.cont
  store ptr null, ptr @_ZN9grpc_core12_GLOBAL__N_112g_xds_clientE, align 8
  br label %if.end

if.end:                                           ; preds = %if.then, %invoke.cont
  invoke void @_ZN4absl12lts_202308025Mutex6UnlockEv(ptr noundef nonnull align 8 dereferenceable(8) %0)
          to label %_ZN4absl12lts_202308029MutexLockD2Ev.exit unwind label %terminate.lpad.i

terminate.lpad.i:                                 ; preds = %if.end
  %2 = landingpad { ptr, i32 }
          catch ptr null
  %3 = extractvalue { ptr, i32 } %2, 0
  tail call void @__clang_call_terminate(ptr %3) #25
  unreachable

_ZN4absl12lts_202308029MutexLockD2Ev.exit:        ; preds = %if.end
  %certificate_provider_store_ = getelementptr inbounds i8, ptr %this, i64 440
  %4 = load ptr, ptr %certificate_provider_store_, align 8
  %cmp.not.i = icmp eq ptr %4, null
  br i1 %cmp.not.i, label %_ZNSt10unique_ptrIN9grpc_core24CertificateProviderStoreENS0_16OrphanableDeleteEED2Ev.exit, label %if.then.i

if.then.i:                                        ; preds = %_ZN4absl12lts_202308029MutexLockD2Ev.exit
  %vtable.i.i = load ptr, ptr %4, align 8
  %5 = load ptr, ptr %vtable.i.i, align 8
  invoke void %5(ptr noundef nonnull align 8 dereferenceable(120) %4)
          to label %_ZNSt10unique_ptrIN9grpc_core24CertificateProviderStoreENS0_16OrphanableDeleteEED2Ev.exit unwind label %terminate.lpad.i1

terminate.lpad.i1:                                ; preds = %if.then.i
  %6 = landingpad { ptr, i32 }
          catch ptr null
  %7 = extractvalue { ptr, i32 } %6, 0
  tail call void @__clang_call_terminate(ptr %7) #25
  unreachable

_ZNSt10unique_ptrIN9grpc_core24CertificateProviderStoreENS0_16OrphanableDeleteEED2Ev.exit: ; preds = %_ZN4absl12lts_202308029MutexLockD2Ev.exit, %if.then.i
  store ptr null, ptr %certificate_provider_store_, align 8
  tail call void @_ZN9grpc_core9XdsClientD2Ev(ptr noundef nonnull align 8 dereferenceable(433) %this) #21
  ret void

terminate.lpad:                                   ; preds = %entry
  %8 = landingpad { ptr, i32 }
          catch ptr null
  %9 = extractvalue { ptr, i32 } %8, 0
  tail call void @__clang_call_terminate(ptr %9) #25
  unreachable
}